; Function Attrs: mustprogress nofree norecurse nosync nounwind willreturn memory(read, argmem: readwrite, inaccessiblemem: none) uwtable
define ptr @pqueue_pop(ptr noundef captures(none) %0) local_unnamed_addr #5 {
  %2 = load ptr, ptr %0, align 8, !tbaa !10
  %.not = icmp eq ptr %2, null
  br i1 %.not, label %6, label %3

3:                                                ; preds = %1
  %4 = getelementptr inbounds nuw i8, ptr %2, i64 16
  %5 = load ptr, ptr %4, align 8, !tbaa !9
  store ptr %5, ptr %0, align 8, !tbaa !10
  br label %6

6:                                                ; preds = %3, %1
  ret ptr %2
}